; Function Attrs: mustprogress nounwind uwtable
define dso_local noundef nonnull ptr @_ZN4llvm36createTargetTransformInfoWrapperPassENS_16TargetIRAnalysisE(ptr nocapture noundef %0) local_unnamed_addr #0 {
  %2 = alloca %"class.llvm::TargetIRAnalysis", align 8
  %3 = tail call noalias noundef nonnull dereferenceable(80) ptr @_Znwm(i64 noundef 80) #28
  %4 = getelementptr inbounds nuw i8, ptr %2, i64 24
  %5 = getelementptr inbounds nuw i8, ptr %0, i64 24
  call void @llvm.memset.p0.i64(ptr noundef nonnull align 8 dereferenceable(24) %2, i8 0, i64 24, i1 false)
  %6 = load ptr, ptr %5, align 8
  store ptr %6, ptr %4, align 8
  %7 = getelementptr inbounds nuw i8, ptr %0, i64 16
  %8 = load ptr, ptr %7, align 8
  %.not.i.i.not.i.i = icmp eq ptr %8, null
  br i1 %.not.i.i.not.i.i, label %_ZN4llvm16TargetIRAnalysisC2EOS0_.exit, label %9

9:                                                ; preds = %1
  %10 = getelementptr inbounds nuw i8, ptr %2, i64 16
  call void @llvm.memcpy.p0.p0.i64(ptr noundef nonnull align 8 dereferenceable(16) %2, ptr noundef nonnull align 8 dereferenceable(16) %0, i64 16, i1 false)
  store ptr %8, ptr %10, align 8
  tail call void @llvm.memset.p0.i64(ptr noundef nonnull align 8 dereferenceable(16) %7, i8 0, i64 16, i1 false)
  br label %_ZN4llvm16TargetIRAnalysisC2EOS0_.exit

_ZN4llvm16TargetIRAnalysisC2EOS0_.exit:           ; preds = %1, %9
  call void @_ZN4llvm30TargetTransformInfoWrapperPassC1ENS_16TargetIRAnalysisE(ptr noundef nonnull align 8 dereferenceable(80) %3, ptr noundef nonnull %2) #25
  %11 = getelementptr inbounds nuw i8, ptr %2, i64 16
  %12 = load ptr, ptr %11, align 8
  %.not.i.i.i = icmp eq ptr %12, null
  br i1 %.not.i.i.i, label %_ZN4llvm16TargetIRAnalysisD2Ev.exit, label %13

13:                                               ; preds = %_ZN4llvm16TargetIRAnalysisC2EOS0_.exit
  %14 = call noundef zeroext i1 %12(ptr noundef nonnull align 8 dereferenceable(16) %2, ptr noundef nonnull align 8 dereferenceable(16) %2, i32 noundef 3) #25
  br label %_ZN4llvm16TargetIRAnalysisD2Ev.exit

_ZN4llvm16TargetIRAnalysisD2Ev.exit:              ; preds = %_ZN4llvm16TargetIRAnalysisC2EOS0_.exit, %13
  ret ptr %3
}